	.section	__TEXT,__text,regular,pure_instructions
	.build_version macos, 14, 0	sdk_version 14, 4
	.file	1 "/Users/yosukemaeda/Code/Mech/Class/Soft2/3rd" "fact-toc.c"
	.globl	_fact                           ; -- Begin function fact
	.p2align	2
_fact:                                  ; @fact
Lfunc_begin0:
	.loc	1 4 0                           ; fact-toc.c:4:0
	.cfi_startproc
; %bb.0:
	sub	sp, sp, #32
	.cfi_def_cfa_offset 32
	stp	x29, x30, [sp, #16]             ; 16-byte Folded Spill
	add	x29, sp, #16
	.cfi_def_cfa w29, 16
	.cfi_offset w30, -8
	.cfi_offset w29, -16
	str	w0, [sp, #8]
	str	w1, [sp, #4]
	str	w2, [sp]
Ltmp0:
	.loc	1 5 7 prologue_end              ; fact-toc.c:5:7
	ldr	w8, [sp, #4]
	.loc	1 5 17 is_stmt 0                ; fact-toc.c:5:17
	ldr	w9, [sp]
	.loc	1 5 15                          ; fact-toc.c:5:15
	subs	w8, w8, w9
	cset	w8, le
Ltmp1:
	.loc	1 5 7                           ; fact-toc.c:5:7
	tbnz	w8, #0, LBB0_2
	b	LBB0_1
LBB0_1:
Ltmp2:
	.loc	1 6 12 is_stmt 1                ; fact-toc.c:6:12
	ldr	w8, [sp, #8]
	.loc	1 6 5 is_stmt 0                 ; fact-toc.c:6:5
	stur	w8, [x29, #-4]
	b	LBB0_3
Ltmp3:
LBB0_2:
	.loc	1 8 17 is_stmt 1                ; fact-toc.c:8:17 : counter
	ldr	w8, [sp, #4]
	.loc	1 8 27 is_stmt 0                ; fact-toc.c:8:27 : product
	ldr	w9, [sp, #8]
	.loc	1 8 25                          ; fact-toc.c:8:25 : counter * product
	mul	w0, w8, w9
	.loc	1 8 36                          ; fact-toc.c:8:36 : counter
	ldr	w8, [sp, #4]
	.loc	1 8 44                          ; fact-toc.c:8:44 : counter + 1
	add	w1, w8, #1
	.loc	1 8 49                          ; fact-toc.c:8:49 : max_counter
	ldr	w2, [sp]
	.loc	1 8 12                          ; fact-toc.c:8:12 : fact()
	bl	_fact
	.loc	1 8 5                           ; fact-toc.c:8:5 : return
	stur	w0, [x29, #-4]
	b	LBB0_3
Ltmp4:
LBB0_3:
	.loc	1 10 1 is_stmt 1                ; fact-toc.c:10:1
	ldur	w0, [x29, #-4]
	ldp	x29, x30, [sp, #16]             ; 16-byte Folded Reload
	add	sp, sp, #32
	ret
Ltmp5:
Lfunc_end0:
	.cfi_endproc
                                        ; -- End function
	.globl	_main                           ; -- Begin function main
	.p2align	2
_main:                                  ; @main
Lfunc_begin1:
	.loc	1 12 0                          ; fact-toc.c:12:0
	.cfi_startproc
; %bb.0:
	sub	sp, sp, #48
	.cfi_def_cfa_offset 48
	stp	x29, x30, [sp, #32]             ; 16-byte Folded Spill
	add	x29, sp, #32
	.cfi_def_cfa w29, 16
	.cfi_offset w30, -8
	.cfi_offset w29, -16
	stur	w0, [x29, #-4]
	str	x1, [sp, #16]
Ltmp6:
	.loc	1 14 12 prologue_end            ; fact-toc.c:14:12
	ldr	x8, [sp, #16]
	ldr	x0, [x8, #8]
	.loc	1 14 7 is_stmt 0                ; fact-toc.c:14:7
	bl	_atoi
	.loc	1 14 5                          ; fact-toc.c:14:5
	str	w0, [sp, #12]
	.loc	1 15 20 is_stmt 1               ; fact-toc.c:15:20
	ldr	w2, [sp, #12]
	mov	w1, #1
	.loc	1 15 9 is_stmt 0                ; fact-toc.c:15:9
	mov	x0, x1
	bl	_fact
	.loc	1 15 7                          ; fact-toc.c:15:7
	str	w0, [sp, #8]
	.loc	1 16 24 is_stmt 1               ; fact-toc.c:16:24
	ldr	w9, [sp, #8]
                                        ; implicit-def: $x8
	mov	x8, x9
	.loc	1 16 3 is_stmt 0                ; fact-toc.c:16:3
	mov	x9, sp
	str	x8, [x9]
	adrp	x0, l_.str@PAGE
	add	x0, x0, l_.str@PAGEOFF
	bl	_printf
	mov	w0, #0
	.loc	1 17 1 is_stmt 1                ; fact-toc.c:17:1
	ldp	x29, x30, [sp, #32]             ; 16-byte Folded Reload
	add	sp, sp, #48
	ret
Ltmp7:
Lfunc_end1:
	.cfi_endproc
                                        ; -- End function
	.section	__TEXT,__cstring,cstring_literals
l_.str:                                 ; @.str
	.asciz	"ret = %d\n"
